; Function Attrs: mustprogress uwtable
define void @_ZN6icu_759UVector3212sortedInsertEiR10UErrorCode(ptr nocapture noundef nonnull align 8 dereferenceable(32) %this, i32 noundef %tok, ptr nocapture noundef nonnull align 4 dereferenceable(4) %ec) local_unnamed_addr #1 align 2 {
entry:
  %count = getelementptr inbounds i8, ptr %this, i64 8
  %0 = load i32, ptr %count, align 8
  %cmp.not13 = icmp eq i32 %0, 0
  br i1 %cmp.not13, label %while.end, label %while.body.lr.ph

while.body.lr.ph:                                 ; preds = %entry
  %elements = getelementptr inbounds i8, ptr %this, i64 24
  %1 = load ptr, ptr %elements, align 8
  br label %while.body

while.body:                                       ; preds = %while.body.lr.ph, %while.body
  %min.015 = phi i32 [ 0, %while.body.lr.ph ], [ %min.1, %while.body ]
  %max.014 = phi i32 [ %0, %while.body.lr.ph ], [ %max.1, %while.body ]
  %add = add nsw i32 %min.015, %max.014
  %div = sdiv i32 %add, 2
  %idxprom = sext i32 %div to i64
  %arrayidx = getelementptr inbounds i32, ptr %1, i64 %idxprom
  %2 = load i32, ptr %arrayidx, align 4
  %cmp2 = icmp sgt i32 %2, %tok
  %add3 = add nsw i32 %div, 1
  %max.1 = select i1 %cmp2, i32 %div, i32 %max.014
  %min.1 = select i1 %cmp2, i32 %min.015, i32 %add3
  %cmp.not = icmp eq i32 %min.1, %max.1
  br i1 %cmp.not, label %while.end, label %while.body, !llvm.loop !17

while.end:                                        ; preds = %while.body, %entry
  %min.0.lcssa = phi i32 [ 0, %entry ], [ %max.1, %while.body ]
  %add5 = add nsw i32 %0, 1
  %cmp.i = icmp slt i32 %0, -1
  %capacity.i = getelementptr inbounds i8, ptr %this, i64 12
  %3 = load i32, ptr %capacity.i, align 4
  %cmp2.not.i = icmp sle i32 %3, %0
  %or.cond.i = select i1 %cmp.i, i1 true, i1 %cmp2.not.i
  br i1 %or.cond.i, label %if.else.i, label %if.then6

if.else.i:                                        ; preds = %while.end
  %4 = load i32, ptr %ec, align 4
  %cmp.i.i.i = icmp slt i32 %4, 1
  br i1 %cmp.i.i.i, label %if.end.i.i, label %if.end19

if.end.i.i:                                       ; preds = %if.else.i
  br i1 %cmp.i, label %if.then2.i.i, label %if.end3.i.i

if.then2.i.i:                                     ; preds = %if.end.i.i
  store i32 1, ptr %ec, align 4
  br label %if.end19

if.end3.i.i:                                      ; preds = %if.end.i.i
  br i1 %cmp2.not.i, label %if.end6.i.i, label %if.then6

if.end6.i.i:                                      ; preds = %if.end3.i.i
  %maxCapacity.i.i = getelementptr inbounds i8, ptr %this, i64 16
  %5 = load i32, ptr %maxCapacity.i.i, align 8
  %cmp7.i.i = icmp sgt i32 %5, 0
  %cmp9.i.i = icmp sle i32 %5, %0
  %or.cond.i.i = and i1 %cmp7.i.i, %cmp9.i.i
  br i1 %or.cond.i.i, label %if.then10.i.i, label %if.end11.i.i

if.then10.i.i:                                    ; preds = %if.end6.i.i
  store i32 15, ptr %ec, align 4
  br label %if.end19

if.end11.i.i:                                     ; preds = %if.end6.i.i
  %cmp13.i.i = icmp sgt i32 %3, 1073741823
  br i1 %cmp13.i.i, label %if.then14.i.i, label %if.end15.i.i

if.then14.i.i:                                    ; preds = %if.end11.i.i
  store i32 1, ptr %ec, align 4
  br label %if.end19

if.end15.i.i:                                     ; preds = %if.end11.i.i
  %mul.i.i = shl nsw i32 %3, 1
  %spec.select.i.i = tail call i32 @llvm.smax.i32(i32 %mul.i.i, i32 %add5)
  %6 = tail call i32 @llvm.smin.i32(i32 %spec.select.i.i, i32 %5)
  %newCap.1.i.i = select i1 %cmp7.i.i, i32 %6, i32 %spec.select.i.i
  %cmp28.i.i = icmp sgt i32 %newCap.1.i.i, 536870911
  br i1 %cmp28.i.i, label %if.then29.i.i, label %if.end30.i.i

if.then29.i.i:                                    ; preds = %if.end15.i.i
  store i32 1, ptr %ec, align 4
  br label %if.end19

if.end30.i.i:                                     ; preds = %if.end15.i.i
  %elements.i.i = getelementptr inbounds i8, ptr %this, i64 24
  %7 = load ptr, ptr %elements.i.i, align 8
  %conv.i.i = zext nneg i32 %newCap.1.i.i to i64
  %mul31.i.i = shl nuw nsw i64 %conv.i.i, 2
  %call32.i.i = tail call ptr @uprv_realloc_75(ptr noundef %7, i64 noundef %mul31.i.i) #16
  %cmp33.i.i = icmp eq ptr %call32.i.i, null
  br i1 %cmp33.i.i, label %if.then34.i.i, label %if.end35.i.i

if.then34.i.i:                                    ; preds = %if.end30.i.i
  store i32 7, ptr %ec, align 4
  br label %if.end19

if.end35.i.i:                                     ; preds = %if.end30.i.i
  store ptr %call32.i.i, ptr %elements.i.i, align 8
  store i32 %newCap.1.i.i, ptr %capacity.i, align 4
  %.pre = load i32, ptr %count, align 8
  br label %if.then6

if.then6:                                         ; preds = %if.end35.i.i, %if.end3.i.i, %while.end
  %8 = phi i32 [ %.pre, %if.end35.i.i ], [ %0, %if.end3.i.i ], [ %0, %while.end ]
  %cmp816 = icmp sgt i32 %8, %min.0.lcssa
  br i1 %cmp816, label %for.body.lr.ph, label %if.then6.for.end_crit_edge

if.then6.for.end_crit_edge:                       ; preds = %if.then6
  %.pre19 = sext i32 %min.0.lcssa to i64
  br label %for.end

for.body.lr.ph:                                   ; preds = %if.then6
  %elements9 = getelementptr inbounds i8, ptr %this, i64 24
  %9 = sext i32 %8 to i64
  %10 = sext i32 %min.0.lcssa to i64
  br label %for.body

for.body:                                         ; preds = %for.body.lr.ph, %for.body
  %indvars.iv = phi i64 [ %9, %for.body.lr.ph ], [ %indvars.iv.next, %for.body ]
  %11 = load ptr, ptr %elements9, align 8
  %12 = getelementptr i32, ptr %11, i64 %indvars.iv
  %arrayidx11 = getelementptr i8, ptr %12, i64 -4
  %13 = load i32, ptr %arrayidx11, align 4
  store i32 %13, ptr %12, align 4
  %indvars.iv.next = add nsw i64 %indvars.iv, -1
  %cmp8 = icmp sgt i64 %indvars.iv.next, %10
  br i1 %cmp8, label %for.body, label %for.end, !llvm.loop !18

for.end:                                          ; preds = %for.body, %if.then6.for.end_crit_edge
  %idxprom16.pre-phi = phi i64 [ %.pre19, %if.then6.for.end_crit_edge ], [ %10, %for.body ]
  %elements15 = getelementptr inbounds i8, ptr %this, i64 24
  %14 = load ptr, ptr %elements15, align 8
  %arrayidx17 = getelementptr inbounds i32, ptr %14, i64 %idxprom16.pre-phi
  store i32 %tok, ptr %arrayidx17, align 4
  %15 = load i32, ptr %count, align 8
  %inc = add nsw i32 %15, 1
  store i32 %inc, ptr %count, align 8
  br label %if.end19

if.end19:                                         ; preds = %if.else.i, %if.then34.i.i, %if.then29.i.i, %if.then14.i.i, %if.then10.i.i, %if.then2.i.i, %for.end
  ret void
}